target datalayout = "e-m:e-p270:32:32-p271:32:32-p272:64:64-i64:64-i128:128-f80:128-n8:16:32:64-S128"
target triple = "x86_64-pc-linux-gnu"

%class.frame = type { %union.anon, ptr, ptr, ptr, i32, i8, %union.anon.0, %union.anon.1 }
%union.anon = type { ptr }
%union.anon.0 = type { ptr }
%union.anon.1 = type { ptr }
%class.RegisterMap = type <{ [609 x ptr], [10 x i64], i8, [7 x i8], ptr, %class.stackChunkHandle, i32, i8, i8, i8, i8 }>
%class.stackChunkHandle = type { %class.Handle }
%class.Handle = type { ptr }
%class.vframeStreamCommon = type { %class.frame, ptr, %class.RegisterMap, i32, i32, i32, i32, ptr, i32, ptr, i8, %class.Handle }

; Function Attrs: mustprogress nounwind uwtable
define linkonce_odr hidden noundef ptr @_ZNK11RegisterMap6threadEv(ptr noundef nonnull align 8 dereferenceable(4983) %0) #1 comdat align 2 {
  %2 = alloca ptr, align 8
  store ptr %0, ptr %2, align 8
  %3 = load ptr, ptr %2, align 8
  %4 = getelementptr inbounds %class.RegisterMap, ptr %3, i32 0, i32 4
  %5 = load ptr, ptr %4, align 8
  ret ptr %5
}

; Function Attrs: mustprogress nounwind uwtable
define linkonce_odr hidden void @_ZN6HandleC2Ev(ptr noundef nonnull align 8 dereferenceable(8) %0) unnamed_addr #1 comdat align 2 {
  %2 = alloca ptr, align 8
  store ptr %0, ptr %2, align 8
  %3 = load ptr, ptr %2, align 8
  %4 = getelementptr inbounds %class.Handle, ptr %3, i32 0, i32 0
  store ptr null, ptr %4, align 8
  ret void
}

; Function Attrs: mustprogress nounwind uwtable
define linkonce_odr hidden void @_ZN5frameC2Ev(ptr noundef nonnull align 8 dereferenceable(56) %0) unnamed_addr #1 comdat align 2 {
  %2 = alloca ptr, align 8
  store ptr %0, ptr %2, align 8
  %3 = load ptr, ptr %2, align 8
  %4 = getelementptr inbounds %class.frame, ptr %3, i32 0, i32 1
  store ptr null, ptr %4, align 8
  %5 = getelementptr inbounds %class.frame, ptr %3, i32 0, i32 0
  store ptr null, ptr %5, align 8
  %6 = getelementptr inbounds %class.frame, ptr %3, i32 0, i32 7
  store ptr null, ptr %6, align 8
  %7 = getelementptr inbounds %class.frame, ptr %3, i32 0, i32 6
  store ptr null, ptr %7, align 8
  %8 = getelementptr inbounds %class.frame, ptr %3, i32 0, i32 2
  store ptr null, ptr %8, align 8
  %9 = getelementptr inbounds %class.frame, ptr %3, i32 0, i32 4
  store i32 2, ptr %9, align 8
  %10 = getelementptr inbounds %class.frame, ptr %3, i32 0, i32 3
  store ptr null, ptr %10, align 8
  %11 = getelementptr inbounds %class.frame, ptr %3, i32 0, i32 5
  store i8 0, ptr %11, align 4
  ret void
}

; Function Attrs: mustprogress nounwind uwtable
define linkonce_odr hidden void @_ZN11RegisterMap9set_asyncEb(ptr noundef nonnull align 8 dereferenceable(4983) %0, i1 noundef zeroext %1) #1 comdat align 2 {
  %3 = alloca ptr, align 8
  %4 = alloca i8, align 1
  store ptr %0, ptr %3, align 8
  %5 = zext i1 %1 to i8
  store i8 %5, ptr %4, align 1
  ret void
}

; Function Attrs: mustprogress nounwind uwtable
define linkonce_odr hidden void @_ZN18vframeStreamCommonC2E11RegisterMap(ptr noundef nonnull align 8 dereferenceable(5104) %0, ptr noundef byval(%class.RegisterMap) align 8 %1) unnamed_addr #1 comdat align 2 {
  %3 = alloca ptr, align 8
  store ptr %0, ptr %3, align 8
  %4 = load ptr, ptr %3, align 8
  %5 = getelementptr inbounds %class.vframeStreamCommon, ptr %4, i32 0, i32 0
  call void @_ZN5frameC2Ev(ptr noundef nonnull align 8 dereferenceable(56) %5)
  %6 = getelementptr inbounds %class.vframeStreamCommon, ptr %4, i32 0, i32 2
  call void @llvm.memcpy.p0.p0.i64(ptr align 8 %6, ptr align 8 %1, i64 4984, i1 false)
  %7 = getelementptr inbounds %class.vframeStreamCommon, ptr %4, i32 0, i32 9
  store ptr null, ptr %7, align 8
  %8 = getelementptr inbounds %class.vframeStreamCommon, ptr %4, i32 0, i32 11
  call void @_ZN6HandleC2Ev(ptr noundef nonnull align 8 dereferenceable(8) %8)
  %9 = getelementptr inbounds %class.vframeStreamCommon, ptr %4, i32 0, i32 2
  %10 = call noundef ptr @_ZNK11RegisterMap6threadEv(ptr noundef nonnull align 8 dereferenceable(4983) %9)
  %11 = getelementptr inbounds %class.vframeStreamCommon, ptr %4, i32 0, i32 1
  store ptr %10, ptr %11, align 8
  ret void
}

; Function Attrs: mustprogress nounwind uwtable
define hidden void @_ZN17vframeStreamForteC2EP10JavaThread5frameb(ptr noundef nonnull align 8 dereferenceable(5104) %0, ptr noundef %1, ptr noundef byval(%class.frame) align 8 %2, i1 noundef zeroext %3) unnamed_addr #1 align 2 {
  %5 = alloca ptr, align 8
  %6 = alloca ptr, align 8
  %7 = alloca i8, align 1
  %8 = alloca %class.RegisterMap, align 8
  %9 = alloca i8, align 1
  store ptr %0, ptr %5, align 8
  store ptr %1, ptr %6, align 8
  %10 = zext i1 %3 to i8
  store i8 %10, ptr %7, align 1
  %11 = load ptr, ptr %5, align 8
  %12 = load ptr, ptr %6, align 8
  call void @_ZN11RegisterMapC1EP10JavaThreadNS_9UpdateMapENS_13ProcessFramesENS_16WalkContinuationE(ptr noundef nonnull align 8 dereferenceable(4983) %8, ptr noundef %12, i32 noundef 0, i32 noundef 0, i32 noundef 0)
  call void @_ZN18vframeStreamCommonC2E11RegisterMap(ptr noundef nonnull align 8 dereferenceable(5104) %11, ptr noundef byval(%class.RegisterMap) align 8 %8)
  %13 = getelementptr inbounds %class.vframeStreamCommon, ptr %11, i32 0, i32 2
  call void @_ZN11RegisterMap9set_asyncEb(ptr noundef nonnull align 8 dereferenceable(4983) %13, i1 noundef zeroext true)
  %14 = load i8, ptr %7, align 1
  %15 = trunc i8 %14 to i1
  %16 = getelementptr inbounds %class.vframeStreamCommon, ptr %11, i32 0, i32 10
  %17 = zext i1 %15 to i8
  store i8 %17, ptr %16, align 8
  %18 = getelementptr inbounds %class.vframeStreamCommon, ptr %11, i32 0, i32 0
  call void @llvm.memcpy.p0.p0.i64(ptr align 8 %18, ptr align 8 %2, i64 56, i1 false)
  %19 = call noundef zeroext i1 @_ZN18vframeStreamCommon15fill_from_frameEv(ptr noundef nonnull align 8 dereferenceable(5104) %11)
  %20 = zext i1 %19 to i8
  store i8 %20, ptr %9, align 1
  ret void
}