; Function Attrs: mustprogress nounwind uwtable
define hidden void @_ZN17vframeStreamForteC2EP10JavaThread5frameb(ptr noundef nonnull align 8 dereferenceable(5104) %0, ptr noundef %1, ptr nocapture noundef readonly byval(%class.frame) align 8 %2, i1 noundef zeroext %3) unnamed_addr #0 align 2 {
  %5 = alloca %class.RegisterMap, align 8
  %6 = zext i1 %3 to i8
  call void @_ZN11RegisterMapC1EP10JavaThreadNS_9UpdateMapENS_13ProcessFramesENS_16WalkContinuationE(ptr noundef nonnull align 8 dereferenceable(4983) %5, ptr noundef %1, i32 noundef 0, i32 noundef 0, i32 noundef 0) #8
  %7 = getelementptr inbounds i8, ptr %0, i64 64
  call void @llvm.memcpy.p0.p0.i64(ptr noundef nonnull align 8 dereferenceable(4984) %7, ptr noundef nonnull align 8 dereferenceable(4984) %5, i64 4984, i1 false)
  %8 = getelementptr inbounds i8, ptr %0, i64 5080
  store ptr null, ptr %8, align 8
  %9 = getelementptr inbounds i8, ptr %0, i64 5096
  store ptr null, ptr %9, align 8
  %10 = getelementptr inbounds i8, ptr %0, i64 5024
  %11 = load ptr, ptr %10, align 8
  %12 = getelementptr inbounds i8, ptr %0, i64 56
  store ptr %11, ptr %12, align 8
  %13 = getelementptr inbounds i8, ptr %0, i64 5088
  store i8 %6, ptr %13, align 8
  call void @llvm.memcpy.p0.p0.i64(ptr noundef nonnull align 8 dereferenceable(56) %0, ptr noundef nonnull align 8 dereferenceable(56) %2, i64 56, i1 false)
  %14 = call noundef zeroext i1 @_ZN18vframeStreamCommon15fill_from_frameEv(ptr noundef nonnull align 8 dereferenceable(5104) %0)
  ret void
}